target datalayout = "e-m:e-p270:32:32-p271:32:32-p272:64:64-i64:64-i128:128-f80:128-n8:16:32:64-S128"
target triple = "x86_64-pc-linux-gnu"

; Function Attrs: nounwind uwtable
define hidden i32 @EVP_DecodedLength(ptr noundef %0, i64 noundef %1) #0 {
  %3 = alloca i32, align 4
  %4 = alloca ptr, align 8
  %5 = alloca i64, align 8
  store ptr %0, ptr %4, align 8, !tbaa !27
  store i64 %1, ptr %5, align 8, !tbaa !20
  %6 = load i64, ptr %5, align 8, !tbaa !20
  %7 = urem i64 %6, 4
  %8 = icmp ne i64 %7, 0
  br i1 %8, label %9, label %10

9:                                                ; preds = %2
  store i32 0, ptr %3, align 4
  br label %15

10:                                               ; preds = %2
  %11 = load i64, ptr %5, align 8, !tbaa !20
  %12 = udiv i64 %11, 4
  %13 = mul i64 %12, 3
  %14 = load ptr, ptr %4, align 8, !tbaa !27
  store i64 %13, ptr %14, align 8, !tbaa !20
  store i32 1, ptr %3, align 4
  br label %15

15:                                               ; preds = %10, %9
  %16 = load i32, ptr %3, align 4
  ret i32 %16
}

; Function Attrs: nounwind uwtable
define internal zeroext i8 @conv_ascii2bin(i8 noundef zeroext %0) #0 {
  %2 = alloca i8, align 1
  %3 = alloca i8, align 1
  store i8 %0, ptr %3, align 1, !tbaa !23
  %4 = load i8, ptr %3, align 1, !tbaa !23
  %5 = zext i8 %4 to i32
  %6 = icmp sge i32 %5, 128
  br i1 %6, label %7, label %8

7:                                                ; preds = %1
  store i8 -1, ptr %2, align 1
  br label %13

8:                                                ; preds = %1
  %9 = load i8, ptr %3, align 1, !tbaa !23
  %10 = zext i8 %9 to i64
  %11 = getelementptr inbounds nuw [128 x i8], ptr @data_ascii2bin, i64 0, i64 %10
  %12 = load i8, ptr %11, align 1, !tbaa !23
  store i8 %12, ptr %2, align 1
  br label %13

13:                                               ; preds = %8, %7
  %14 = load i8, ptr %2, align 1
  ret i8 %14
}

; Function Attrs: nounwind uwtable
define hidden i32 @EVP_DecodeBlock(ptr noundef %0, ptr noundef %1, i64 noundef %2) #0 {
  %4 = alloca i32, align 4
  %5 = alloca ptr, align 8
  %6 = alloca ptr, align 8
  %7 = alloca i64, align 8
  %8 = alloca i64, align 8
  %9 = alloca i32, align 4
  store ptr %0, ptr %5, align 8, !tbaa !16
  store ptr %1, ptr %6, align 8, !tbaa !16
  store i64 %2, ptr %7, align 8, !tbaa !20
  call void @llvm.lifetime.start.p0(i64 8, ptr %8) #3
  br label %10

10:                                               ; preds = %21, %3
  %11 = load ptr, ptr %6, align 8, !tbaa !16
  %12 = load i8, ptr %11, align 1, !tbaa !23
  %13 = call zeroext i8 @conv_ascii2bin(i8 noundef zeroext %12)
  %14 = zext i8 %13 to i32
  %15 = icmp eq i32 %14, 224
  br i1 %15, label %16, label %19

16:                                               ; preds = %10
  %17 = load i64, ptr %7, align 8, !tbaa !20
  %18 = icmp ugt i64 %17, 0
  br label %19

19:                                               ; preds = %16, %10
  %20 = phi i1 [ false, %10 ], [ %18, %16 ]
  br i1 %20, label %21, label %26

21:                                               ; preds = %19
  %22 = load ptr, ptr %6, align 8, !tbaa !16
  %23 = getelementptr inbounds nuw i8, ptr %22, i32 1
  store ptr %23, ptr %6, align 8, !tbaa !16
  %24 = load i64, ptr %7, align 8, !tbaa !20
  %25 = add i64 %24, -1
  store i64 %25, ptr %7, align 8, !tbaa !20
  br label %10, !llvm.loop !32

26:                                               ; preds = %19
  br label %27

27:                                               ; preds = %42, %26
  %28 = load i64, ptr %7, align 8, !tbaa !20
  %29 = icmp ugt i64 %28, 3
  br i1 %29, label %30, label %40

30:                                               ; preds = %27
  %31 = load ptr, ptr %6, align 8, !tbaa !16
  %32 = load i64, ptr %7, align 8, !tbaa !20
  %33 = sub i64 %32, 1
  %34 = getelementptr inbounds nuw i8, ptr %31, i64 %33
  %35 = load i8, ptr %34, align 1, !tbaa !23
  %36 = call zeroext i8 @conv_ascii2bin(i8 noundef zeroext %35)
  %37 = zext i8 %36 to i32
  %38 = or i32 %37, 19
  %39 = icmp eq i32 %38, 243
  br label %40

40:                                               ; preds = %30, %27
  %41 = phi i1 [ false, %27 ], [ %39, %30 ]
  br i1 %41, label %42, label %45

42:                                               ; preds = %40
  %43 = load i64, ptr %7, align 8, !tbaa !20
  %44 = add i64 %43, -1
  store i64 %44, ptr %7, align 8, !tbaa !20
  br label %27, !llvm.loop !33

45:                                               ; preds = %40
  %46 = load i64, ptr %7, align 8, !tbaa !20
  %47 = call i32 @EVP_DecodedLength(ptr noundef %8, i64 noundef %46)
  %48 = icmp ne i32 %47, 0
  br i1 %48, label %49, label %52

49:                                               ; preds = %45
  %50 = load i64, ptr %8, align 8, !tbaa !20
  %51 = icmp ugt i64 %50, 2147483647
  br i1 %51, label %52, label %53

52:                                               ; preds = %49, %45
  store i32 -1, ptr %4, align 4
  store i32 1, ptr %9, align 4
  br label %74

53:                                               ; preds = %49
  %54 = load ptr, ptr %5, align 8, !tbaa !16
  %55 = load i64, ptr %8, align 8, !tbaa !20
  %56 = load ptr, ptr %6, align 8, !tbaa !16
  %57 = load i64, ptr %7, align 8, !tbaa !20
  %58 = call i32 @EVP_DecodeBase64(ptr noundef %54, ptr noundef %8, i64 noundef %55, ptr noundef %56, i64 noundef %57)
  %59 = icmp ne i32 %58, 0
  br i1 %59, label %61, label %60

60:                                               ; preds = %53
  store i32 -1, ptr %4, align 4
  store i32 1, ptr %9, align 4
  br label %74

61:                                               ; preds = %53
  br label %62

62:                                               ; preds = %66, %61
  %63 = load i64, ptr %8, align 8, !tbaa !20
  %64 = urem i64 %63, 3
  %65 = icmp ne i64 %64, 0
  br i1 %65, label %66, label %71

66:                                               ; preds = %62
  %67 = load ptr, ptr %5, align 8, !tbaa !16
  %68 = load i64, ptr %8, align 8, !tbaa !20
  %69 = add i64 %68, 1
  store i64 %69, ptr %8, align 8, !tbaa !20
  %70 = getelementptr inbounds nuw i8, ptr %67, i64 %68
  store i8 0, ptr %70, align 1, !tbaa !23
  br label %62, !llvm.loop !34

71:                                               ; preds = %62
  %72 = load i64, ptr %8, align 8, !tbaa !20
  %73 = trunc i64 %72 to i32
  store i32 %73, ptr %4, align 4
  store i32 1, ptr %9, align 4
  br label %74

74:                                               ; preds = %71, %60, %52
  call void @llvm.lifetime.end.p0(i64 8, ptr %8) #3
  %75 = load i32, ptr %4, align 4
  ret i32 %75
}