; Function Attrs: nofree norecurse nosync nounwind memory(argmem: readwrite) uwtable
define hidden i32 @EVP_DecodeBlock(ptr noundef writeonly captures(none) %0, ptr noundef readonly captures(none) %1, i64 noundef %2) local_unnamed_addr #1 {
  %4 = alloca i64, align 8
  call void @llvm.lifetime.start.p0(i64 8, ptr nonnull %4) #4
  %5 = load i8, ptr %1, align 1, !tbaa !14
  %6 = icmp slt i8 %5, 0
  br i1 %6, label %.preheader24, label %conv_ascii2bin.exit

conv_ascii2bin.exit:                              ; preds = %3, %14
  %7 = phi i8 [ %17, %14 ], [ %5, %3 ]
  %.040 = phi i64 [ %16, %14 ], [ %2, %3 ]
  %.01439 = phi ptr [ %15, %14 ], [ %1, %3 ]
  %8 = icmp eq i8 %7, 9
  %9 = icmp eq i8 %7, 32
  %10 = or i1 %8, %9
  %11 = icmp ne i64 %.040, 0
  %12 = select i1 %10, i1 %11, i1 false
  br i1 %12, label %14, label %.preheader24

.preheader24:                                     ; preds = %conv_ascii2bin.exit, %14, %3
  %.014.lcssa = phi ptr [ %1, %3 ], [ %.01439, %conv_ascii2bin.exit ], [ %15, %14 ]
  %.0.lcssa = phi i64 [ %2, %3 ], [ %.040, %conv_ascii2bin.exit ], [ %16, %14 ]
  %invariant.gep = getelementptr i8, ptr %.014.lcssa, i64 -1
  %13 = icmp ugt i64 %.0.lcssa, 3
  br i1 %13, label %.lr.ph, label %.critedge

14:                                               ; preds = %conv_ascii2bin.exit
  %15 = getelementptr inbounds nuw i8, ptr %.01439, i64 1
  %16 = add i64 %.040, -1
  %17 = load i8, ptr %15, align 1, !tbaa !14
  %18 = icmp slt i8 %17, 0
  br i1 %18, label %.preheader24, label %conv_ascii2bin.exit, !llvm.loop !22

.lr.ph:                                           ; preds = %.preheader24, %26
  %.125 = phi i64 [ %27, %26 ], [ %.0.lcssa, %.preheader24 ]
  %gep = getelementptr i8, ptr %invariant.gep, i64 %.125
  %19 = load i8, ptr %gep, align 1, !tbaa !14
  %20 = icmp slt i8 %19, 0
  br i1 %20, label %.critedge, label %conv_ascii2bin.exit19

conv_ascii2bin.exit19:                            ; preds = %.lr.ph
  %21 = zext nneg i8 %19 to i64
  %22 = getelementptr inbounds nuw [128 x i8], ptr @data_ascii2bin, i64 0, i64 %21
  %23 = load i8, ptr %22, align 1, !tbaa !14
  %24 = and i8 %23, -20
  %25 = icmp eq i8 %24, -32
  br i1 %25, label %26, label %.critedge

26:                                               ; preds = %conv_ascii2bin.exit19
  %27 = add i64 %.125, -1
  %28 = icmp ugt i64 %27, 3
  br i1 %28, label %.lr.ph, label %EVP_DecodedLength.exit.thread, !llvm.loop !23

.critedge:                                        ; preds = %conv_ascii2bin.exit19, %.lr.ph, %.preheader24
  %.1.lcssa = phi i64 [ %.0.lcssa, %.preheader24 ], [ %.125, %.lr.ph ], [ %.125, %conv_ascii2bin.exit19 ]
  %29 = and i64 %.1.lcssa, 3
  %.not.i = icmp eq i64 %29, 0
  br i1 %.not.i, label %EVP_DecodedLength.exit, label %EVP_DecodedLength.exit.thread

EVP_DecodedLength.exit:                           ; preds = %.critedge
  %30 = lshr exact i64 %.1.lcssa, 2
  %31 = mul nuw i64 %30, 3
  store i64 %31, ptr %4, align 8, !tbaa !18
  %32 = icmp ugt i64 %.1.lcssa, 2863311528
  br i1 %32, label %EVP_DecodedLength.exit.thread, label %33

33:                                               ; preds = %EVP_DecodedLength.exit
  %34 = call i32 @EVP_DecodeBase64(ptr noundef %0, ptr noundef nonnull %4, i64 noundef %31, ptr noundef nonnull %.014.lcssa, i64 noundef %.1.lcssa)
  %.not = icmp eq i32 %34, 0
  br i1 %.not, label %EVP_DecodedLength.exit.thread, label %.preheader

.preheader:                                       ; preds = %33
  %.promoted = load i64, ptr %4, align 8, !tbaa !18
  %35 = urem i64 %.promoted, 3
  %.not1730 = icmp eq i64 %35, 0
  br i1 %.not1730, label %._crit_edge, label %.lr.ph31

.lr.ph31:                                         ; preds = %.preheader, %.lr.ph31
  %36 = phi i64 [ %37, %.lr.ph31 ], [ %.promoted, %.preheader ]
  %37 = add i64 %36, 1
  %38 = getelementptr inbounds nuw i8, ptr %0, i64 %36
  store i8 0, ptr %38, align 1, !tbaa !14
  %39 = urem i64 %37, 3
  %.not17 = icmp eq i64 %39, 0
  br i1 %.not17, label %._crit_edge, label %.lr.ph31, !llvm.loop !24

._crit_edge:                                      ; preds = %.lr.ph31, %.preheader
  %.lcssa29 = phi i64 [ %.promoted, %.preheader ], [ %37, %.lr.ph31 ]
  %40 = trunc i64 %.lcssa29 to i32
  br label %EVP_DecodedLength.exit.thread

EVP_DecodedLength.exit.thread:                    ; preds = %26, %.critedge, %33, %EVP_DecodedLength.exit, %._crit_edge
  %.015 = phi i32 [ %40, %._crit_edge ], [ -1, %EVP_DecodedLength.exit ], [ -1, %33 ], [ -1, %.critedge ], [ -1, %26 ]
  call void @llvm.lifetime.end.p0(i64 8, ptr nonnull %4) #4
  ret i32 %.015
}